; Function Attrs: mustprogress uwtable
define dso_local void @_ZN34btDeformableMultiBodyDynamicsWorld11removeForceEP10btSoftBodyP27btDeformableLagrangianForce(ptr noundef nonnull readonly align 8 captures(none) dereferenceable(1056) %0, ptr noundef %1, ptr noundef %2) local_unnamed_addr #4 align 2 {
  %4 = getelementptr inbounds nuw i8, ptr %0, i64 848
  %5 = load ptr, ptr %4, align 8, !tbaa !81
  %6 = load ptr, ptr %5, align 8, !tbaa !50
  %7 = getelementptr inbounds nuw i8, ptr %6, i64 208
  %8 = load ptr, ptr %7, align 8
  %9 = tail call noundef ptr %8(ptr noundef nonnull align 8 dereferenceable(609) %5)
  %10 = getelementptr inbounds nuw i8, ptr %9, i64 4
  %11 = load i32, ptr %10, align 4, !tbaa !439
  %12 = icmp sgt i32 %11, 0
  br i1 %12, label %.lr.ph, label %_ZN20btAlignedObjectArrayIP27btDeformableLagrangianForceE13removeAtIndexEi.exit

.lr.ph:                                           ; preds = %3
  %13 = getelementptr inbounds nuw i8, ptr %9, i64 16
  br label %14

14:                                               ; preds = %.lr.ph, %40
  %indvars.iv = phi i64 [ 0, %.lr.ph ], [ %indvars.iv.next, %40 ]
  %15 = load ptr, ptr %13, align 8, !tbaa !444
  %16 = getelementptr inbounds nuw ptr, ptr %15, i64 %indvars.iv
  %17 = load ptr, ptr %16, align 8, !tbaa !445
  %18 = load ptr, ptr %17, align 8, !tbaa !50
  %19 = getelementptr inbounds nuw i8, ptr %18, i64 72
  %20 = load ptr, ptr %19, align 8
  %21 = tail call noundef i32 %20(ptr noundef nonnull align 8 dereferenceable(48) %17)
  %22 = load ptr, ptr %2, align 8, !tbaa !50
  %23 = getelementptr inbounds nuw i8, ptr %22, i64 72
  %24 = load ptr, ptr %23, align 8
  %25 = tail call noundef i32 %24(ptr noundef nonnull align 8 dereferenceable(48) %2)
  %26 = icmp eq i32 %21, %25
  br i1 %26, label %27, label %40

27:                                               ; preds = %14
  %28 = load ptr, ptr %13, align 8, !tbaa !444
  %29 = getelementptr inbounds nuw ptr, ptr %28, i64 %indvars.iv
  %30 = load ptr, ptr %29, align 8, !tbaa !445
  %31 = load ptr, ptr %30, align 8, !tbaa !50
  %32 = getelementptr inbounds nuw i8, ptr %31, i64 104
  %33 = load ptr, ptr %32, align 8
  tail call void %33(ptr noundef nonnull align 8 dereferenceable(48) %30, ptr noundef %1)
  %34 = load ptr, ptr %13, align 8, !tbaa !444
  %35 = getelementptr inbounds nuw ptr, ptr %34, i64 %indvars.iv
  %36 = load ptr, ptr %35, align 8, !tbaa !445
  %37 = getelementptr inbounds nuw i8, ptr %36, i64 12
  %38 = load i32, ptr %37, align 4, !tbaa !142
  %39 = icmp eq i32 %38, 0
  br i1 %39, label %44, label %_ZN20btAlignedObjectArrayIP27btDeformableLagrangianForceE13removeAtIndexEi.exit

40:                                               ; preds = %14
  %indvars.iv.next = add nuw nsw i64 %indvars.iv, 1
  %41 = load i32, ptr %10, align 4, !tbaa !439
  %42 = sext i32 %41 to i64
  %43 = icmp slt i64 %indvars.iv.next, %42
  br i1 %43, label %14, label %_ZN20btAlignedObjectArrayIP27btDeformableLagrangianForceE13removeAtIndexEi.exit, !llvm.loop !450

44:                                               ; preds = %27
  %45 = trunc nuw nsw i64 %indvars.iv to i32
  %46 = load i32, ptr %10, align 4, !tbaa !439
  %47 = icmp sgt i32 %46, %45
  br i1 %47, label %48, label %_ZN20btAlignedObjectArrayIP27btDeformableLagrangianForceE13removeAtIndexEi.exit

48:                                               ; preds = %44
  %49 = add nsw i32 %46, -1
  %50 = and i64 %indvars.iv, 4294967295
  %51 = getelementptr inbounds nuw ptr, ptr %34, i64 %50
  %52 = load ptr, ptr %51, align 8, !tbaa !445
  %53 = zext nneg i32 %49 to i64
  %54 = getelementptr inbounds nuw ptr, ptr %34, i64 %53
  %55 = load ptr, ptr %54, align 8, !tbaa !445
  store ptr %55, ptr %51, align 8, !tbaa !445
  store ptr %52, ptr %54, align 8, !tbaa !445
  store i32 %49, ptr %10, align 4, !tbaa !439
  br label %_ZN20btAlignedObjectArrayIP27btDeformableLagrangianForceE13removeAtIndexEi.exit

_ZN20btAlignedObjectArrayIP27btDeformableLagrangianForceE13removeAtIndexEi.exit: ; preds = %40, %3, %27, %48, %44
  ret void
}